target datalayout = "e-m:e-p270:32:32-p271:32:32-p272:64:64-i64:64-i128:128-f80:128-n8:16:32:64-S128"
target triple = "x86_64-pc-linux-gnu"

@.str.5 = private unnamed_addr constant [27 x i8] c"../openssl/test/rsa_test.c\00", align 1
@test_rsa_saos.in = internal constant [256 x i8] zeroinitializer, align 16
@.str.17 = private unnamed_addr constant [23 x i8] c"rsa_priv = load_key(1)\00", align 1
@.str.18 = private unnamed_addr constant [22 x i8] c"rsa_pub = load_key(0)\00", align 1
@.str.19 = private unnamed_addr constant [17 x i8] c"(int)sizeof(sig)\00", align 1
@.str.20 = private unnamed_addr constant [19 x i8] c"RSA_size(rsa_priv)\00", align 1
@.str.21 = private unnamed_addr constant [65 x i8] c"RSA_sign_ASN1_OCTET_STRING(0, in, inlen, sig, &siglen, rsa_priv)\00", align 1
@.str.22 = private unnamed_addr constant [65 x i8] c"RSA_verify_ASN1_OCTET_STRING(0, in, inlen, sig, siglen, rsa_pub)\00", align 1
@.str.23 = private unnamed_addr constant [69 x i8] c"RSA_sign_ASN1_OCTET_STRING(0, in, inlen + 1, sig, &siglen, rsa_priv)\00", align 1
@.str.24 = private unnamed_addr constant [64 x i8] c"RSA_sign_ASN1_OCTET_STRING(0, in, inlen, sig, &siglen, rsa_pub)\00", align 1
@.str.25 = private unnamed_addr constant [69 x i8] c"RSA_verify_ASN1_OCTET_STRING(0, in, inlen, sig, siglen - 1, rsa_pub)\00", align 1
@.str.26 = private unnamed_addr constant [119 x i8] c"RSA_verify_ASN1_OCTET_STRING(0, in, inlen, (unsigned char *)no_octet_sig, (unsigned int)sizeof(no_octet_sig), rsa_pub)\00", align 1
@.str.27 = private unnamed_addr constant [119 x i8] c"RSA_verify_ASN1_OCTET_STRING(0, in, inlen, (unsigned char *)sig_mismatch, (unsigned int)sizeof(sig_mismatch), rsa_pub)\00", align 1

; Function Attrs: nounwind uwtable
define internal i32 @test_rsa_saos() #0 {
  %1 = alloca i32, align 4
  %2 = alloca i32, align 4
  %3 = alloca ptr, align 8
  %4 = alloca ptr, align 8
  %5 = alloca [256 x i8], align 16
  %6 = alloca i32, align 4
  call void @llvm.lifetime.start.p0(i64 4, ptr %1) #5
  store i32 0, ptr %1, align 4, !tbaa !4
  call void @llvm.lifetime.start.p0(i64 4, ptr %2) #5
  store i32 0, ptr %2, align 4, !tbaa !4
  call void @llvm.lifetime.start.p0(i64 8, ptr %3) #5
  store ptr null, ptr %3, align 8, !tbaa !8
  call void @llvm.lifetime.start.p0(i64 8, ptr %4) #5
  store ptr null, ptr %4, align 8, !tbaa !8
  call void @llvm.lifetime.start.p0(i64 256, ptr %5) #5
  call void @llvm.lifetime.start.p0(i64 4, ptr %6) #5
  store i32 242, ptr %6, align 4, !tbaa !4
  %7 = call ptr @load_key(i32 noundef 1)
  store ptr %7, ptr %3, align 8, !tbaa !8
  %8 = call i32 @test_ptr(ptr noundef @.str.5, i32 noundef 659, ptr noundef @.str.17, ptr noundef %7)
  %9 = icmp ne i32 %8, 0
  br i1 %9, label %11, label %10

10:                                               ; preds = %0
  br label %112

11:                                               ; preds = %0
  %12 = call ptr @load_key(i32 noundef 0)
  store ptr %12, ptr %4, align 8, !tbaa !8
  %13 = call i32 @test_ptr(ptr noundef @.str.5, i32 noundef 661, ptr noundef @.str.18, ptr noundef %12)
  %14 = icmp ne i32 %13, 0
  br i1 %14, label %16, label %15

15:                                               ; preds = %11
  br label %112

16:                                               ; preds = %11
  %17 = load ptr, ptr %3, align 8, !tbaa !8
  %18 = call i32 @RSA_size(ptr noundef %17)
  %19 = call i32 @test_int_ge(ptr noundef @.str.5, i32 noundef 663, ptr noundef @.str.19, ptr noundef @.str.20, i32 noundef 256, i32 noundef %18)
  %20 = icmp ne i32 %19, 0
  br i1 %20, label %22, label %21

21:                                               ; preds = %16
  br label %112

22:                                               ; preds = %16
  %23 = load i32, ptr %6, align 4, !tbaa !4
  %24 = getelementptr inbounds [256 x i8], ptr %5, i64 0, i64 0
  %25 = load ptr, ptr %3, align 8, !tbaa !8
  %26 = call i32 @RSA_sign_ASN1_OCTET_STRING(i32 noundef 0, ptr noundef @test_rsa_saos.in, i32 noundef %23, ptr noundef %24, ptr noundef %2, ptr noundef %25)
  %27 = icmp ne i32 %26, 0
  %28 = zext i1 %27 to i32
  %29 = call i32 @test_true(ptr noundef @.str.5, i32 noundef 668, ptr noundef @.str.21, i32 noundef %28)
  %30 = icmp ne i32 %29, 0
  br i1 %30, label %32, label %31

31:                                               ; preds = %22
  br label %112

32:                                               ; preds = %22
  %33 = load i32, ptr %6, align 4, !tbaa !4
  %34 = getelementptr inbounds [256 x i8], ptr %5, i64 0, i64 0
  %35 = load i32, ptr %2, align 4, !tbaa !4
  %36 = load ptr, ptr %4, align 8, !tbaa !8
  %37 = call i32 @RSA_verify_ASN1_OCTET_STRING(i32 noundef 0, ptr noundef @test_rsa_saos.in, i32 noundef %33, ptr noundef %34, i32 noundef %35, ptr noundef %36)
  %38 = icmp ne i32 %37, 0
  %39 = zext i1 %38 to i32
  %40 = call i32 @test_true(ptr noundef @.str.5, i32 noundef 670, ptr noundef @.str.22, i32 noundef %39)
  %41 = icmp ne i32 %40, 0
  br i1 %41, label %43, label %42

42:                                               ; preds = %32
  br label %112

43:                                               ; preds = %32
  %44 = load i32, ptr %6, align 4, !tbaa !4
  %45 = add i32 %44, 1
  %46 = getelementptr inbounds [256 x i8], ptr %5, i64 0, i64 0
  %47 = load ptr, ptr %3, align 8, !tbaa !8
  %48 = call i32 @RSA_sign_ASN1_OCTET_STRING(i32 noundef 0, ptr noundef @test_rsa_saos.in, i32 noundef %45, ptr noundef %46, ptr noundef %2, ptr noundef %47)
  %49 = icmp ne i32 %48, 0
  %50 = zext i1 %49 to i32
  %51 = call i32 @test_false(ptr noundef @.str.5, i32 noundef 675, ptr noundef @.str.23, i32 noundef %50)
  %52 = icmp ne i32 %51, 0
  br i1 %52, label %54, label %53

53:                                               ; preds = %43
  br label %112

54:                                               ; preds = %43
  %55 = load i32, ptr %6, align 4, !tbaa !4
  %56 = getelementptr inbounds [256 x i8], ptr %5, i64 0, i64 0
  %57 = load ptr, ptr %4, align 8, !tbaa !8
  %58 = call i32 @RSA_sign_ASN1_OCTET_STRING(i32 noundef 0, ptr noundef @test_rsa_saos.in, i32 noundef %55, ptr noundef %56, ptr noundef %2, ptr noundef %57)
  %59 = icmp ne i32 %58, 0
  %60 = zext i1 %59 to i32
  %61 = call i32 @test_false(ptr noundef @.str.5, i32 noundef 680, ptr noundef @.str.24, i32 noundef %60)
  %62 = icmp ne i32 %61, 0
  br i1 %62, label %64, label %63

63:                                               ; preds = %54
  br label %112

64:                                               ; preds = %54
  %65 = load i32, ptr %6, align 4, !tbaa !4
  %66 = getelementptr inbounds [256 x i8], ptr %5, i64 0, i64 0
  %67 = load i32, ptr %2, align 4, !tbaa !4
  %68 = sub i32 %67, 1
  %69 = load ptr, ptr %4, align 8, !tbaa !8
  %70 = call i32 @RSA_verify_ASN1_OCTET_STRING(i32 noundef 0, ptr noundef @test_rsa_saos.in, i32 noundef %65, ptr noundef %66, i32 noundef %68, ptr noundef %69)
  %71 = icmp ne i32 %70, 0
  %72 = zext i1 %71 to i32
  %73 = call i32 @test_false(ptr noundef @.str.5, i32 noundef 684, ptr noundef @.str.25, i32 noundef %72)
  %74 = icmp ne i32 %73, 0
  br i1 %74, label %76, label %75

75:                                               ; preds = %64
  br label %112

76:                                               ; preds = %64
  %77 = load i32, ptr %6, align 4, !tbaa !4
  %78 = load ptr, ptr %4, align 8, !tbaa !8
  %79 = call i32 @RSA_verify_ASN1_OCTET_STRING(i32 noundef 0, ptr noundef @test_rsa_saos.in, i32 noundef %77, ptr noundef @test_rsa_saos.no_octet_sig, i32 noundef 256, ptr noundef %78)
  %80 = icmp ne i32 %79, 0
  %81 = zext i1 %80 to i32
  %82 = call i32 @test_false(ptr noundef @.str.5, i32 noundef 690, ptr noundef @.str.26, i32 noundef %81)
  %83 = icmp ne i32 %82, 0
  br i1 %83, label %85, label %84

84:                                               ; preds = %76
  br label %112

85:                                               ; preds = %76
  %86 = load i32, ptr %6, align 4, !tbaa !4
  %87 = load ptr, ptr %4, align 8, !tbaa !8
  %88 = call i32 @RSA_verify_ASN1_OCTET_STRING(i32 noundef 0, ptr noundef @test_rsa_saos.in, i32 noundef %86, ptr noundef @test_rsa_saos.sig_mismatch, i32 noundef 256, ptr noundef %87)
  %89 = icmp ne i32 %88, 0
  %90 = zext i1 %89 to i32
  %91 = call i32 @test_false(ptr noundef @.str.5, i32 noundef 696, ptr noundef @.str.27, i32 noundef %90)
  %92 = icmp ne i32 %91, 0
  br i1 %92, label %94, label %93

93:                                               ; preds = %85
  br label %112

94:                                               ; preds = %85
  %95 = getelementptr inbounds [256 x i8], ptr %5, i64 0, i64 0
  %96 = load i8, ptr %95, align 16, !tbaa !11
  %97 = add i8 %96, 1
  store i8 %97, ptr %95, align 16, !tbaa !11
  %98 = load i32, ptr %6, align 4, !tbaa !4
  %99 = getelementptr inbounds [256 x i8], ptr %5, i64 0, i64 0
  %100 = load i32, ptr %2, align 4, !tbaa !4
  %101 = load ptr, ptr %4, align 8, !tbaa !8
  %102 = call i32 @RSA_verify_ASN1_OCTET_STRING(i32 noundef 0, ptr noundef @test_rsa_saos.in, i32 noundef %98, ptr noundef %99, i32 noundef %100, ptr noundef %101)
  %103 = icmp ne i32 %102, 0
  %104 = zext i1 %103 to i32
  %105 = call i32 @test_false(ptr noundef @.str.5, i32 noundef 701, ptr noundef @.str.22, i32 noundef %104)
  %106 = icmp ne i32 %105, 0
  br i1 %106, label %108, label %107

107:                                              ; preds = %94
  br label %112

108:                                              ; preds = %94
  %109 = getelementptr inbounds [256 x i8], ptr %5, i64 0, i64 0
  %110 = load i8, ptr %109, align 16, !tbaa !11
  %111 = add i8 %110, -1
  store i8 %111, ptr %109, align 16, !tbaa !11
  store i32 1, ptr %1, align 4, !tbaa !4
  br label %112

112:                                              ; preds = %108, %107, %93, %84, %75, %63, %53, %42, %31, %21, %15, %10
  %113 = load ptr, ptr %3, align 8, !tbaa !8
  call void @RSA_free(ptr noundef %113)
  %114 = load ptr, ptr %4, align 8, !tbaa !8
  call void @RSA_free(ptr noundef %114)
  %115 = load i32, ptr %1, align 4, !tbaa !4
  call void @llvm.lifetime.end.p0(i64 4, ptr %6) #5
  call void @llvm.lifetime.end.p0(i64 256, ptr %5) #5
  call void @llvm.lifetime.end.p0(i64 8, ptr %4) #5
  call void @llvm.lifetime.end.p0(i64 8, ptr %3) #5
  call void @llvm.lifetime.end.p0(i64 4, ptr %2) #5
  call void @llvm.lifetime.end.p0(i64 4, ptr %1) #5
  ret i32 %115
}