; Function Attrs: nounwind uwtable
define internal range(i32 0, 2) i32 @test_rsa_saos() #0 {
  %1 = alloca i32, align 4
  %2 = alloca [256 x i8], align 16
  call void @llvm.lifetime.start.p0(i64 4, ptr nonnull %1) #5
  store i32 0, ptr %1, align 4, !tbaa !9
  call void @llvm.lifetime.start.p0(i64 256, ptr nonnull %2) #5
  %3 = tail call fastcc ptr @load_key(i32 noundef 1)
  %4 = tail call i32 @test_ptr(ptr noundef nonnull @.str.5, i32 noundef 659, ptr noundef nonnull @.str.17, ptr noundef %3) #5
  %.not = icmp eq i32 %4, 0
  br i1 %.not, label %60, label %5

5:                                                ; preds = %0
  %6 = tail call fastcc ptr @load_key(i32 noundef 0)
  %7 = tail call i32 @test_ptr(ptr noundef nonnull @.str.5, i32 noundef 661, ptr noundef nonnull @.str.18, ptr noundef %6) #5
  %.not20 = icmp eq i32 %7, 0
  br i1 %.not20, label %60, label %8

8:                                                ; preds = %5
  %9 = tail call i32 @RSA_size(ptr noundef %3) #5
  %10 = tail call i32 @test_int_ge(ptr noundef nonnull @.str.5, i32 noundef 663, ptr noundef nonnull @.str.19, ptr noundef nonnull @.str.20, i32 noundef 256, i32 noundef %9) #5
  %.not21 = icmp eq i32 %10, 0
  br i1 %.not21, label %60, label %11

11:                                               ; preds = %8
  %12 = call i32 @RSA_sign_ASN1_OCTET_STRING(i32 noundef 0, ptr noundef nonnull @test_rsa_saos.in, i32 noundef 242, ptr noundef nonnull %2, ptr noundef nonnull %1, ptr noundef %3) #5
  %13 = icmp ne i32 %12, 0
  %14 = zext i1 %13 to i32
  %15 = call i32 @test_true(ptr noundef nonnull @.str.5, i32 noundef 668, ptr noundef nonnull @.str.21, i32 noundef %14) #5
  %.not22 = icmp eq i32 %15, 0
  br i1 %.not22, label %60, label %16

16:                                               ; preds = %11
  %17 = load i32, ptr %1, align 4, !tbaa !9
  %18 = call i32 @RSA_verify_ASN1_OCTET_STRING(i32 noundef 0, ptr noundef nonnull @test_rsa_saos.in, i32 noundef 242, ptr noundef nonnull %2, i32 noundef %17, ptr noundef %6) #5
  %19 = icmp ne i32 %18, 0
  %20 = zext i1 %19 to i32
  %21 = call i32 @test_true(ptr noundef nonnull @.str.5, i32 noundef 670, ptr noundef nonnull @.str.22, i32 noundef %20) #5
  %.not23 = icmp eq i32 %21, 0
  br i1 %.not23, label %60, label %22

22:                                               ; preds = %16
  %23 = call i32 @RSA_sign_ASN1_OCTET_STRING(i32 noundef 0, ptr noundef nonnull @test_rsa_saos.in, i32 noundef 243, ptr noundef nonnull %2, ptr noundef nonnull %1, ptr noundef %3) #5
  %24 = icmp ne i32 %23, 0
  %25 = zext i1 %24 to i32
  %26 = call i32 @test_false(ptr noundef nonnull @.str.5, i32 noundef 675, ptr noundef nonnull @.str.23, i32 noundef %25) #5
  %.not24 = icmp eq i32 %26, 0
  br i1 %.not24, label %60, label %27

27:                                               ; preds = %22
  %28 = call i32 @RSA_sign_ASN1_OCTET_STRING(i32 noundef 0, ptr noundef nonnull @test_rsa_saos.in, i32 noundef 242, ptr noundef nonnull %2, ptr noundef nonnull %1, ptr noundef %6) #5
  %29 = icmp ne i32 %28, 0
  %30 = zext i1 %29 to i32
  %31 = call i32 @test_false(ptr noundef nonnull @.str.5, i32 noundef 680, ptr noundef nonnull @.str.24, i32 noundef %30) #5
  %.not25 = icmp eq i32 %31, 0
  br i1 %.not25, label %60, label %32

32:                                               ; preds = %27
  %33 = load i32, ptr %1, align 4, !tbaa !9
  %34 = add i32 %33, -1
  %35 = call i32 @RSA_verify_ASN1_OCTET_STRING(i32 noundef 0, ptr noundef nonnull @test_rsa_saos.in, i32 noundef 242, ptr noundef nonnull %2, i32 noundef %34, ptr noundef %6) #5
  %36 = icmp ne i32 %35, 0
  %37 = zext i1 %36 to i32
  %38 = call i32 @test_false(ptr noundef nonnull @.str.5, i32 noundef 684, ptr noundef nonnull @.str.25, i32 noundef %37) #5
  %.not26 = icmp eq i32 %38, 0
  br i1 %.not26, label %60, label %39

39:                                               ; preds = %32
  %40 = call i32 @RSA_verify_ASN1_OCTET_STRING(i32 noundef 0, ptr noundef nonnull @test_rsa_saos.in, i32 noundef 242, ptr noundef nonnull @test_rsa_saos.no_octet_sig, i32 noundef 256, ptr noundef %6) #5
  %41 = icmp ne i32 %40, 0
  %42 = zext i1 %41 to i32
  %43 = call i32 @test_false(ptr noundef nonnull @.str.5, i32 noundef 690, ptr noundef nonnull @.str.26, i32 noundef %42) #5
  %.not27 = icmp eq i32 %43, 0
  br i1 %.not27, label %60, label %44

44:                                               ; preds = %39
  %45 = call i32 @RSA_verify_ASN1_OCTET_STRING(i32 noundef 0, ptr noundef nonnull @test_rsa_saos.in, i32 noundef 242, ptr noundef nonnull @test_rsa_saos.sig_mismatch, i32 noundef 256, ptr noundef %6) #5
  %46 = icmp ne i32 %45, 0
  %47 = zext i1 %46 to i32
  %48 = call i32 @test_false(ptr noundef nonnull @.str.5, i32 noundef 696, ptr noundef nonnull @.str.27, i32 noundef %47) #5
  %.not28 = icmp eq i32 %48, 0
  br i1 %.not28, label %60, label %49

49:                                               ; preds = %44
  %50 = load i8, ptr %2, align 16, !tbaa !11
  %51 = add i8 %50, 1
  store i8 %51, ptr %2, align 16, !tbaa !11
  %52 = load i32, ptr %1, align 4, !tbaa !9
  %53 = call i32 @RSA_verify_ASN1_OCTET_STRING(i32 noundef 0, ptr noundef nonnull @test_rsa_saos.in, i32 noundef 242, ptr noundef nonnull %2, i32 noundef %52, ptr noundef %6) #5
  %54 = icmp ne i32 %53, 0
  %55 = zext i1 %54 to i32
  %56 = call i32 @test_false(ptr noundef nonnull @.str.5, i32 noundef 701, ptr noundef nonnull @.str.22, i32 noundef %55) #5
  %.not29 = icmp eq i32 %56, 0
  br i1 %.not29, label %60, label %57

57:                                               ; preds = %49
  %58 = load i8, ptr %2, align 16, !tbaa !11
  %59 = add i8 %58, -1
  store i8 %59, ptr %2, align 16, !tbaa !11
  br label %60

60:                                               ; preds = %49, %44, %39, %32, %27, %22, %16, %11, %8, %5, %0, %57
  %.019 = phi ptr [ %6, %57 ], [ %6, %49 ], [ %6, %44 ], [ %6, %39 ], [ %6, %32 ], [ %6, %27 ], [ %6, %22 ], [ %6, %16 ], [ %6, %11 ], [ %6, %8 ], [ %6, %5 ], [ null, %0 ]
  %.0 = phi i32 [ 1, %57 ], [ 0, %49 ], [ 0, %44 ], [ 0, %39 ], [ 0, %32 ], [ 0, %27 ], [ 0, %22 ], [ 0, %16 ], [ 0, %11 ], [ 0, %8 ], [ 0, %5 ], [ 0, %0 ]
  call void @RSA_free(ptr noundef %3) #5
  call void @RSA_free(ptr noundef %.019) #5
  call void @llvm.lifetime.end.p0(i64 256, ptr nonnull %2) #5
  call void @llvm.lifetime.end.p0(i64 4, ptr nonnull %1) #5
  ret i32 %.0
}